target datalayout = "e-m:e-p270:32:32-p271:32:32-p272:64:64-i64:64-i128:128-f80:128-n8:16:32:64-S128"
target triple = "x86_64-pc-linux-gnu"

%union.anon.2 = type { i64, [24 x i8] }

; Function Attrs: nounwind uwtable
define i64 @CRYPTO_nistcts128_decrypt_block(ptr noundef %0, ptr noundef %1, i64 noundef %2, ptr noundef %3, ptr noundef %4, ptr noundef %5) #0 {
  %7 = alloca i64, align 8
  %8 = alloca ptr, align 8
  %9 = alloca ptr, align 8
  %10 = alloca i64, align 8
  %11 = alloca ptr, align 8
  %12 = alloca ptr, align 8
  %13 = alloca ptr, align 8
  %14 = alloca i64, align 8
  %15 = alloca i64, align 8
  %16 = alloca %union.anon.2, align 8
  %17 = alloca i32, align 4
  %18 = alloca i8, align 1
  store ptr %0, ptr %8, align 8, !tbaa !3
  store ptr %1, ptr %9, align 8, !tbaa !3
  store i64 %2, ptr %10, align 8, !tbaa !8
  store ptr %3, ptr %11, align 8, !tbaa !10
  store ptr %4, ptr %12, align 8, !tbaa !3
  store ptr %5, ptr %13, align 8, !tbaa !10
  call void @llvm.lifetime.start.p0(i64 8, ptr %14) #5
  call void @llvm.lifetime.start.p0(i64 8, ptr %15) #5
  call void @llvm.lifetime.start.p0(i64 32, ptr %16) #5
  %19 = load i64, ptr %10, align 8, !tbaa !8
  %20 = icmp ult i64 %19, 16
  br i1 %20, label %21, label %22

21:                                               ; preds = %6
  store i64 0, ptr %7, align 8
  store i32 1, ptr %17, align 4
  br label %140

22:                                               ; preds = %6
  %23 = load i64, ptr %10, align 8, !tbaa !8
  %24 = urem i64 %23, 16
  store i64 %24, ptr %14, align 8, !tbaa !8
  %25 = load i64, ptr %14, align 8, !tbaa !8
  %26 = icmp eq i64 %25, 0
  br i1 %26, label %27, label %35

27:                                               ; preds = %22
  %28 = load ptr, ptr %8, align 8, !tbaa !3
  %29 = load ptr, ptr %9, align 8, !tbaa !3
  %30 = load i64, ptr %10, align 8, !tbaa !8
  %31 = load ptr, ptr %11, align 8, !tbaa !10
  %32 = load ptr, ptr %12, align 8, !tbaa !3
  %33 = load ptr, ptr %13, align 8, !tbaa !10
  call void @CRYPTO_cbc128_decrypt(ptr noundef %28, ptr noundef %29, i64 noundef %30, ptr noundef %31, ptr noundef %32, ptr noundef %33)
  %34 = load i64, ptr %10, align 8, !tbaa !8
  store i64 %34, ptr %7, align 8
  store i32 1, ptr %17, align 4
  br label %140

35:                                               ; preds = %22
  %36 = load i64, ptr %14, align 8, !tbaa !8
  %37 = add i64 16, %36
  %38 = load i64, ptr %10, align 8, !tbaa !8
  %39 = sub i64 %38, %37
  store i64 %39, ptr %10, align 8, !tbaa !8
  %40 = load i64, ptr %10, align 8, !tbaa !8
  %41 = icmp ne i64 %40, 0
  br i1 %41, label %42, label %55

42:                                               ; preds = %35
  %43 = load ptr, ptr %8, align 8, !tbaa !3
  %44 = load ptr, ptr %9, align 8, !tbaa !3
  %45 = load i64, ptr %10, align 8, !tbaa !8
  %46 = load ptr, ptr %11, align 8, !tbaa !10
  %47 = load ptr, ptr %12, align 8, !tbaa !3
  %48 = load ptr, ptr %13, align 8, !tbaa !10
  call void @CRYPTO_cbc128_decrypt(ptr noundef %43, ptr noundef %44, i64 noundef %45, ptr noundef %46, ptr noundef %47, ptr noundef %48)
  %49 = load i64, ptr %10, align 8, !tbaa !8
  %50 = load ptr, ptr %8, align 8, !tbaa !3
  %51 = getelementptr inbounds nuw i8, ptr %50, i64 %49
  store ptr %51, ptr %8, align 8, !tbaa !3
  %52 = load i64, ptr %10, align 8, !tbaa !8
  %53 = load ptr, ptr %9, align 8, !tbaa !3
  %54 = getelementptr inbounds nuw i8, ptr %53, i64 %52
  store ptr %54, ptr %9, align 8, !tbaa !3
  br label %55

55:                                               ; preds = %42, %35
  %56 = load ptr, ptr %13, align 8, !tbaa !10
  %57 = load ptr, ptr %8, align 8, !tbaa !3
  %58 = load i64, ptr %14, align 8, !tbaa !8
  %59 = getelementptr inbounds nuw i8, ptr %57, i64 %58
  %60 = getelementptr inbounds [32 x i8], ptr %16, i64 0, i64 0
  %61 = getelementptr inbounds i8, ptr %60, i64 16
  %62 = load ptr, ptr %11, align 8, !tbaa !10
  call void %56(ptr noundef %59, ptr noundef %61, ptr noundef %62)
  %63 = getelementptr inbounds [32 x i8], ptr %16, i64 0, i64 0
  %64 = getelementptr inbounds [32 x i8], ptr %16, i64 0, i64 0
  %65 = getelementptr inbounds i8, ptr %64, i64 16
  call void @llvm.memcpy.p0.p0.i64(ptr align 8 %63, ptr align 1 %65, i64 16, i1 false)
  %66 = getelementptr inbounds [32 x i8], ptr %16, i64 0, i64 0
  %67 = load ptr, ptr %8, align 8, !tbaa !3
  %68 = load i64, ptr %14, align 8, !tbaa !8
  call void @llvm.memcpy.p0.p0.i64(ptr align 8 %66, ptr align 1 %67, i64 %68, i1 false)
  %69 = load ptr, ptr %13, align 8, !tbaa !10
  %70 = getelementptr inbounds [32 x i8], ptr %16, i64 0, i64 0
  %71 = getelementptr inbounds [32 x i8], ptr %16, i64 0, i64 0
  %72 = load ptr, ptr %11, align 8, !tbaa !10
  call void %69(ptr noundef %70, ptr noundef %71, ptr noundef %72)
  store i64 0, ptr %15, align 8, !tbaa !8
  br label %73

73:                                               ; preds = %107, %55
  %74 = load i64, ptr %15, align 8, !tbaa !8
  %75 = icmp ult i64 %74, 16
  br i1 %75, label %76, label %110

76:                                               ; preds = %73
  call void @llvm.lifetime.start.p0(i64 1, ptr %18) #5
  %77 = load ptr, ptr %8, align 8, !tbaa !3
  %78 = load i64, ptr %15, align 8, !tbaa !8
  %79 = getelementptr inbounds nuw i8, ptr %77, i64 %78
  %80 = load i8, ptr %79, align 1, !tbaa !11
  store i8 %80, ptr %18, align 1, !tbaa !11
  %81 = load i64, ptr %15, align 8, !tbaa !8
  %82 = getelementptr inbounds nuw [32 x i8], ptr %16, i64 0, i64 %81
  %83 = load i8, ptr %82, align 1, !tbaa !11
  %84 = zext i8 %83 to i32
  %85 = load ptr, ptr %12, align 8, !tbaa !3
  %86 = load i64, ptr %15, align 8, !tbaa !8
  %87 = getelementptr inbounds nuw i8, ptr %85, i64 %86
  %88 = load i8, ptr %87, align 1, !tbaa !11
  %89 = zext i8 %88 to i32
  %90 = xor i32 %84, %89
  %91 = trunc i32 %90 to i8
  %92 = load ptr, ptr %9, align 8, !tbaa !3
  %93 = load i64, ptr %15, align 8, !tbaa !8
  %94 = getelementptr inbounds nuw i8, ptr %92, i64 %93
  store i8 %91, ptr %94, align 1, !tbaa !11
  %95 = load ptr, ptr %8, align 8, !tbaa !3
  %96 = load i64, ptr %15, align 8, !tbaa !8
  %97 = load i64, ptr %14, align 8, !tbaa !8
  %98 = add i64 %96, %97
  %99 = getelementptr inbounds nuw i8, ptr %95, i64 %98
  %100 = load i8, ptr %99, align 1, !tbaa !11
  %101 = load ptr, ptr %12, align 8, !tbaa !3
  %102 = load i64, ptr %15, align 8, !tbaa !8
  %103 = getelementptr inbounds nuw i8, ptr %101, i64 %102
  store i8 %100, ptr %103, align 1, !tbaa !11
  %104 = load i8, ptr %18, align 1, !tbaa !11
  %105 = load i64, ptr %15, align 8, !tbaa !8
  %106 = getelementptr inbounds nuw [32 x i8], ptr %16, i64 0, i64 %105
  store i8 %104, ptr %106, align 1, !tbaa !11
  call void @llvm.lifetime.end.p0(i64 1, ptr %18) #5
  br label %107

107:                                              ; preds = %76
  %108 = load i64, ptr %15, align 8, !tbaa !8
  %109 = add i64 %108, 1
  store i64 %109, ptr %15, align 8, !tbaa !8
  br label %73, !llvm.loop !17

110:                                              ; preds = %73
  %111 = load i64, ptr %14, align 8, !tbaa !8
  %112 = add i64 %111, 16
  store i64 %112, ptr %14, align 8, !tbaa !8
  br label %113

113:                                              ; preds = %132, %110
  %114 = load i64, ptr %15, align 8, !tbaa !8
  %115 = load i64, ptr %14, align 8, !tbaa !8
  %116 = icmp ult i64 %114, %115
  br i1 %116, label %117, label %135

117:                                              ; preds = %113
  %118 = load i64, ptr %15, align 8, !tbaa !8
  %119 = getelementptr inbounds nuw [32 x i8], ptr %16, i64 0, i64 %118
  %120 = load i8, ptr %119, align 1, !tbaa !11
  %121 = zext i8 %120 to i32
  %122 = load i64, ptr %15, align 8, !tbaa !8
  %123 = sub i64 %122, 16
  %124 = getelementptr inbounds nuw [32 x i8], ptr %16, i64 0, i64 %123
  %125 = load i8, ptr %124, align 1, !tbaa !11
  %126 = zext i8 %125 to i32
  %127 = xor i32 %121, %126
  %128 = trunc i32 %127 to i8
  %129 = load ptr, ptr %9, align 8, !tbaa !3
  %130 = load i64, ptr %15, align 8, !tbaa !8
  %131 = getelementptr inbounds nuw i8, ptr %129, i64 %130
  store i8 %128, ptr %131, align 1, !tbaa !11
  br label %132

132:                                              ; preds = %117
  %133 = load i64, ptr %15, align 8, !tbaa !8
  %134 = add i64 %133, 1
  store i64 %134, ptr %15, align 8, !tbaa !8
  br label %113, !llvm.loop !18

135:                                              ; preds = %113
  %136 = load i64, ptr %10, align 8, !tbaa !8
  %137 = add i64 16, %136
  %138 = load i64, ptr %14, align 8, !tbaa !8
  %139 = add i64 %137, %138
  store i64 %139, ptr %7, align 8
  store i32 1, ptr %17, align 4
  br label %140

140:                                              ; preds = %135, %27, %21
  call void @llvm.lifetime.end.p0(i64 32, ptr %16) #5
  call void @llvm.lifetime.end.p0(i64 8, ptr %15) #5
  call void @llvm.lifetime.end.p0(i64 8, ptr %14) #5
  %141 = load i64, ptr %7, align 8
  ret i64 %141
}