; Function Attrs: nounwind uwtable
define noundef i64 @CRYPTO_nistcts128_decrypt_block(ptr noundef %0, ptr noundef %1, i64 noundef %2, ptr noundef %3, ptr noundef %4, ptr noundef %5) local_unnamed_addr #0 {
  %7 = alloca %union.anon.2, align 8
  call void @llvm.lifetime.start.p0(i64 32, ptr nonnull %7) #5
  %8 = icmp ult i64 %2, 16
  br i1 %8, label %43, label %9

9:                                                ; preds = %6
  %10 = and i64 %2, 15
  %11 = icmp eq i64 %10, 0
  br i1 %11, label %12, label %13

12:                                               ; preds = %9
  tail call void @CRYPTO_cbc128_decrypt(ptr noundef %0, ptr noundef %1, i64 noundef %2, ptr noundef %3, ptr noundef %4, ptr noundef %5) #5
  br label %43

13:                                               ; preds = %9
  %14 = or disjoint i64 %10, 16
  %.not = icmp eq i64 %2, %14
  br i1 %.not, label %19, label %15

15:                                               ; preds = %13
  %16 = sub i64 %2, %14
  tail call void @CRYPTO_cbc128_decrypt(ptr noundef %0, ptr noundef %1, i64 noundef %16, ptr noundef %3, ptr noundef %4, ptr noundef %5) #5
  %17 = getelementptr inbounds nuw i8, ptr %0, i64 %16
  %18 = getelementptr inbounds nuw i8, ptr %1, i64 %16
  br label %19

19:                                               ; preds = %15, %13
  %.059 = phi ptr [ %18, %15 ], [ %1, %13 ]
  %.058 = phi ptr [ %17, %15 ], [ %0, %13 ]
  %20 = getelementptr inbounds nuw i8, ptr %.058, i64 %10
  %21 = getelementptr inbounds nuw i8, ptr %7, i64 16
  call void %5(ptr noundef nonnull %20, ptr noundef nonnull %21, ptr noundef %3) #5
  call void @llvm.memcpy.p0.p0.i64(ptr noundef nonnull align 8 dereferenceable(16) %7, ptr noundef nonnull align 8 dereferenceable(16) %21, i64 16, i1 false)
  call void @llvm.memcpy.p0.p0.i64(ptr nonnull align 8 %7, ptr align 1 %.058, i64 %10, i1 false)
  call void %5(ptr noundef nonnull %7, ptr noundef nonnull %7, ptr noundef %3) #5
  br label %22

22:                                               ; preds = %19, %22
  %.05764 = phi i64 [ 0, %19 ], [ %33, %22 ]
  %23 = getelementptr inbounds nuw i8, ptr %.058, i64 %.05764
  %24 = load i8, ptr %23, align 1, !tbaa !3
  %25 = getelementptr inbounds nuw [32 x i8], ptr %7, i64 0, i64 %.05764
  %26 = load i8, ptr %25, align 1, !tbaa !3
  %27 = getelementptr inbounds nuw i8, ptr %4, i64 %.05764
  %28 = load i8, ptr %27, align 1, !tbaa !3
  %29 = xor i8 %28, %26
  %30 = getelementptr inbounds nuw i8, ptr %.059, i64 %.05764
  store i8 %29, ptr %30, align 1, !tbaa !3
  %31 = getelementptr inbounds nuw i8, ptr %23, i64 %10
  %32 = load i8, ptr %31, align 1, !tbaa !3
  store i8 %32, ptr %27, align 1, !tbaa !3
  store i8 %24, ptr %25, align 1, !tbaa !3
  %33 = add nuw nsw i64 %.05764, 1
  %exitcond.not = icmp eq i64 %33, 16
  br i1 %exitcond.not, label %.lr.ph, label %22, !llvm.loop !11

.lr.ph:                                           ; preds = %22, %.lr.ph
  %.165 = phi i64 [ %41, %.lr.ph ], [ 16, %22 ]
  %34 = getelementptr inbounds nuw [32 x i8], ptr %7, i64 0, i64 %.165
  %35 = load i8, ptr %34, align 1, !tbaa !3
  %36 = add nsw i64 %.165, -16
  %37 = getelementptr inbounds nuw [32 x i8], ptr %7, i64 0, i64 %36
  %38 = load i8, ptr %37, align 1, !tbaa !3
  %39 = xor i8 %38, %35
  %40 = getelementptr inbounds nuw i8, ptr %.059, i64 %.165
  store i8 %39, ptr %40, align 1, !tbaa !3
  %41 = add nuw nsw i64 %.165, 1
  %exitcond66.not = icmp eq i64 %41, %14
  br i1 %exitcond66.not, label %._crit_edge, label %.lr.ph, !llvm.loop !12

._crit_edge:                                      ; preds = %.lr.ph
  %42 = add i64 %2, 16
  br label %43

43:                                               ; preds = %6, %._crit_edge, %12
  %.0 = phi i64 [ %2, %12 ], [ %42, %._crit_edge ], [ 0, %6 ]
  call void @llvm.lifetime.end.p0(i64 32, ptr nonnull %7) #5
  ret i64 %.0
}